target datalayout = "e-m:e-p270:32:32-p271:32:32-p272:64:64-i64:64-i128:128-f80:128-n8:16:32:64-S128"
target triple = "x86_64-pc-linux-gnu"

%struct.pointf_s = type { double, double }

@.str.154 = private unnamed_addr constant [10 x i8] c"%lf,%lf%c\00", align 1
@.str.155 = private unnamed_addr constant [6 x i8] c"%lf%c\00", align 1

; Function Attrs: nounwind uwtable
define internal zeroext i1 @getdoubles2ptf(ptr noundef %0, ptr noundef %1, ptr noundef %2) #0 {
  %4 = alloca ptr, align 8
  %5 = alloca ptr, align 8
  %6 = alloca ptr, align 8
  %7 = alloca ptr, align 8
  %8 = alloca i32, align 4
  %9 = alloca double, align 8
  %10 = alloca double, align 8
  %11 = alloca i8, align 1
  %12 = alloca i8, align 1
  store ptr %0, ptr %4, align 8, !tbaa !14
  store ptr %1, ptr %5, align 8, !tbaa !3
  store ptr %2, ptr %6, align 8, !tbaa !126
  call void @llvm.lifetime.start.p0(i64 8, ptr %7) #16
  call void @llvm.lifetime.start.p0(i64 4, ptr %8) #16
  call void @llvm.lifetime.start.p0(i64 8, ptr %9) #16
  call void @llvm.lifetime.start.p0(i64 8, ptr %10) #16
  call void @llvm.lifetime.start.p0(i64 1, ptr %11) #16
  store i8 0, ptr %11, align 1, !tbaa !51
  call void @llvm.lifetime.start.p0(i64 1, ptr %12) #16
  store i8 0, ptr %12, align 1, !tbaa !59
  %13 = load ptr, ptr %4, align 8, !tbaa !14
  %14 = load ptr, ptr %5, align 8, !tbaa !3
  %15 = call ptr @agget(ptr noundef %13, ptr noundef %14)
  store ptr %15, ptr %7, align 8, !tbaa !3
  %16 = icmp ne ptr %15, null
  br i1 %16, label %17, label %100

17:                                               ; preds = %3
  %18 = load ptr, ptr %7, align 8, !tbaa !3
  %19 = call i32 (ptr, ptr, ...) @__isoc99_sscanf(ptr noundef %18, ptr noundef @.str.154, ptr noundef %9, ptr noundef %10, ptr noundef %11) #16
  store i32 %19, ptr %8, align 4, !tbaa !8
  %20 = load i32, ptr %8, align 4, !tbaa !8
  %21 = icmp sgt i32 %20, 1
  br i1 %21, label %22, label %66

22:                                               ; preds = %17
  %23 = load double, ptr %9, align 8, !tbaa !58
  %24 = fcmp ogt double %23, 0.000000e+00
  br i1 %24, label %25, label %66

25:                                               ; preds = %22
  %26 = load double, ptr %10, align 8, !tbaa !58
  %27 = fcmp ogt double %26, 0.000000e+00
  br i1 %27, label %28, label %66

28:                                               ; preds = %25
  %29 = load double, ptr %9, align 8, !tbaa !58
  %30 = fmul double %29, 7.200000e+01
  %31 = fcmp oge double %30, 0.000000e+00
  br i1 %31, label %32, label %36

32:                                               ; preds = %28
  %33 = load double, ptr %9, align 8, !tbaa !58
  %34 = call double @llvm.fmuladd.f64(double %33, double 7.200000e+01, double 5.000000e-01)
  %35 = fptosi double %34 to i32
  br label %40

36:                                               ; preds = %28
  %37 = load double, ptr %9, align 8, !tbaa !58
  %38 = call double @llvm.fmuladd.f64(double %37, double 7.200000e+01, double -5.000000e-01)
  %39 = fptosi double %38 to i32
  br label %40

40:                                               ; preds = %36, %32
  %41 = phi i32 [ %35, %32 ], [ %39, %36 ]
  %42 = sitofp i32 %41 to double
  %43 = load ptr, ptr %6, align 8, !tbaa !126
  %44 = getelementptr inbounds nuw %struct.pointf_s, ptr %43, i32 0, i32 0
  store double %42, ptr %44, align 8, !tbaa !128
  %45 = load double, ptr %10, align 8, !tbaa !58
  %46 = fmul double %45, 7.200000e+01
  %47 = fcmp oge double %46, 0.000000e+00
  br i1 %47, label %48, label %52

48:                                               ; preds = %40
  %49 = load double, ptr %10, align 8, !tbaa !58
  %50 = call double @llvm.fmuladd.f64(double %49, double 7.200000e+01, double 5.000000e-01)
  %51 = fptosi double %50 to i32
  br label %56

52:                                               ; preds = %40
  %53 = load double, ptr %10, align 8, !tbaa !58
  %54 = call double @llvm.fmuladd.f64(double %53, double 7.200000e+01, double -5.000000e-01)
  %55 = fptosi double %54 to i32
  br label %56

56:                                               ; preds = %52, %48
  %57 = phi i32 [ %51, %48 ], [ %55, %52 ]
  %58 = sitofp i32 %57 to double
  %59 = load ptr, ptr %6, align 8, !tbaa !126
  %60 = getelementptr inbounds nuw %struct.pointf_s, ptr %59, i32 0, i32 1
  store double %58, ptr %60, align 8, !tbaa !129
  %61 = load i8, ptr %11, align 1, !tbaa !51
  %62 = sext i8 %61 to i32
  %63 = icmp eq i32 %62, 33
  br i1 %63, label %64, label %65

64:                                               ; preds = %56
  store i8 1, ptr %12, align 1, !tbaa !59
  br label %65

65:                                               ; preds = %64, %56
  br label %99

66:                                               ; preds = %25, %22, %17
  store i8 0, ptr %11, align 1, !tbaa !51
  %67 = load ptr, ptr %7, align 8, !tbaa !3
  %68 = call i32 (ptr, ptr, ...) @__isoc99_sscanf(ptr noundef %67, ptr noundef @.str.155, ptr noundef %9, ptr noundef %11) #16
  store i32 %68, ptr %8, align 4, !tbaa !8
  %69 = load i32, ptr %8, align 4, !tbaa !8
  %70 = icmp sgt i32 %69, 0
  br i1 %70, label %71, label %98

71:                                               ; preds = %66
  %72 = load double, ptr %9, align 8, !tbaa !58
  %73 = fcmp ogt double %72, 0.000000e+00
  br i1 %73, label %74, label %98

74:                                               ; preds = %71
  %75 = load double, ptr %9, align 8, !tbaa !58
  %76 = fmul double %75, 7.200000e+01
  %77 = fcmp oge double %76, 0.000000e+00
  br i1 %77, label %78, label %82

78:                                               ; preds = %74
  %79 = load double, ptr %9, align 8, !tbaa !58
  %80 = call double @llvm.fmuladd.f64(double %79, double 7.200000e+01, double 5.000000e-01)
  %81 = fptosi double %80 to i32
  br label %86

82:                                               ; preds = %74
  %83 = load double, ptr %9, align 8, !tbaa !58
  %84 = call double @llvm.fmuladd.f64(double %83, double 7.200000e+01, double -5.000000e-01)
  %85 = fptosi double %84 to i32
  br label %86

86:                                               ; preds = %82, %78
  %87 = phi i32 [ %81, %78 ], [ %85, %82 ]
  %88 = sitofp i32 %87 to double
  %89 = load ptr, ptr %6, align 8, !tbaa !126
  %90 = getelementptr inbounds nuw %struct.pointf_s, ptr %89, i32 0, i32 0
  store double %88, ptr %90, align 8, !tbaa !128
  %91 = load ptr, ptr %6, align 8, !tbaa !126
  %92 = getelementptr inbounds nuw %struct.pointf_s, ptr %91, i32 0, i32 1
  store double %88, ptr %92, align 8, !tbaa !129
  %93 = load i8, ptr %11, align 1, !tbaa !51
  %94 = sext i8 %93 to i32
  %95 = icmp eq i32 %94, 33
  br i1 %95, label %96, label %97

96:                                               ; preds = %86
  store i8 1, ptr %12, align 1, !tbaa !59
  br label %97

97:                                               ; preds = %96, %86
  br label %98

98:                                               ; preds = %97, %71, %66
  br label %99

99:                                               ; preds = %98, %65
  br label %100

100:                                              ; preds = %99, %3
  %101 = load i8, ptr %12, align 1, !tbaa !59, !range !49, !noundef !50
  %102 = trunc i8 %101 to i1
  call void @llvm.lifetime.end.p0(i64 1, ptr %12) #16
  call void @llvm.lifetime.end.p0(i64 1, ptr %11) #16
  call void @llvm.lifetime.end.p0(i64 8, ptr %10) #16
  call void @llvm.lifetime.end.p0(i64 8, ptr %9) #16
  call void @llvm.lifetime.end.p0(i64 4, ptr %8) #16
  call void @llvm.lifetime.end.p0(i64 8, ptr %7) #16
  ret i1 %102
}